; Function Attrs: mustprogress nounwind uwtable
define dso_local void @_ZN5clang16OMPClausePrinter24VisitOMPDefaultmapClauseEPNS_19OMPDefaultmapClauseE(ptr noundef nonnull readonly align 8 captures(none) dereferenceable(16) %0, ptr noundef readonly captures(none) %1) local_unnamed_addr #1 align 2 {
  %3 = load ptr, ptr %0, align 8
  %4 = getelementptr inbounds nuw i8, ptr %3, i64 24
  %5 = load ptr, ptr %4, align 8
  %6 = getelementptr inbounds nuw i8, ptr %3, i64 32
  %7 = load ptr, ptr %6, align 8
  %8 = ptrtoint ptr %5 to i64
  %9 = ptrtoint ptr %7 to i64
  %10 = sub i64 %8, %9
  %11 = icmp ult i64 %10, 11
  br i1 %11, label %12, label %14

12:                                               ; preds = %2
  %13 = tail call noundef nonnull align 8 dereferenceable(48) ptr @_ZN4llvm11raw_ostream5writeEPKcm(ptr noundef nonnull align 8 dereferenceable(48) %3, ptr noundef nonnull @.str.92, i64 noundef 11) #22
  br label %_ZN4llvm11raw_ostreamlsEPKc.exit

14:                                               ; preds = %2
  tail call void @llvm.memcpy.p0.p0.i64(ptr noundef nonnull align 1 dereferenceable(11) %7, ptr noundef nonnull align 1 dereferenceable(11) @.str.92, i64 11, i1 false)
  %15 = load ptr, ptr %6, align 8
  %16 = getelementptr inbounds nuw i8, ptr %15, i64 11
  store ptr %16, ptr %6, align 8
  br label %_ZN4llvm11raw_ostreamlsEPKc.exit

_ZN4llvm11raw_ostreamlsEPKc.exit:                 ; preds = %12, %14
  %17 = load ptr, ptr %0, align 8
  %18 = getelementptr inbounds nuw i8, ptr %1, i64 16
  %19 = load i32, ptr %18, align 4
  %20 = tail call noundef ptr @_ZN5clang29getOpenMPSimpleClauseTypeNameEN4llvm3omp6ClauseEj(i32 noundef 21, i32 noundef %19) #22
  %.not.i.i = icmp eq ptr %20, null
  br i1 %.not.i.i, label %_ZN4llvm11raw_ostreamlsEPKc.exit6, label %_ZN4llvm9StringRefC2EPKc.exit.i

_ZN4llvm9StringRefC2EPKc.exit.i:                  ; preds = %_ZN4llvm11raw_ostreamlsEPKc.exit
  %21 = tail call noundef i64 @strlen(ptr noundef nonnull dereferenceable(1) %20) #22
  %22 = getelementptr inbounds nuw i8, ptr %17, i64 24
  %23 = load ptr, ptr %22, align 8
  %24 = getelementptr inbounds nuw i8, ptr %17, i64 32
  %25 = load ptr, ptr %24, align 8
  %26 = ptrtoint ptr %23 to i64
  %27 = ptrtoint ptr %25 to i64
  %28 = sub i64 %26, %27
  %29 = icmp ugt i64 %21, %28
  br i1 %29, label %30, label %32

30:                                               ; preds = %_ZN4llvm9StringRefC2EPKc.exit.i
  %31 = tail call noundef nonnull align 8 dereferenceable(48) ptr @_ZN4llvm11raw_ostream5writeEPKcm(ptr noundef nonnull align 8 dereferenceable(48) %17, ptr noundef nonnull %20, i64 noundef %21) #22
  br label %_ZN4llvm11raw_ostreamlsEPKc.exit6

32:                                               ; preds = %_ZN4llvm9StringRefC2EPKc.exit.i
  %.not.i2.i4 = icmp eq i64 %21, 0
  br i1 %.not.i2.i4, label %_ZN4llvm11raw_ostreamlsEPKc.exit6, label %33

33:                                               ; preds = %32
  tail call void @llvm.memcpy.p0.p0.i64(ptr align 1 %25, ptr nonnull align 1 %20, i64 %21, i1 false)
  %34 = load ptr, ptr %24, align 8
  %35 = getelementptr inbounds i8, ptr %34, i64 %21
  store ptr %35, ptr %24, align 8
  br label %_ZN4llvm11raw_ostreamlsEPKc.exit6

_ZN4llvm11raw_ostreamlsEPKc.exit6:                ; preds = %_ZN4llvm11raw_ostreamlsEPKc.exit, %30, %32, %33
  %36 = getelementptr inbounds nuw i8, ptr %1, i64 24
  %37 = load i32, ptr %36, align 4
  %.not = icmp eq i32 %37, 4
  br i1 %.not, label %_ZN4llvm11raw_ostreamlsEPKc.exit15, label %38

38:                                               ; preds = %_ZN4llvm11raw_ostreamlsEPKc.exit6
  %39 = load ptr, ptr %0, align 8
  %40 = getelementptr inbounds nuw i8, ptr %39, i64 24
  %41 = load ptr, ptr %40, align 8
  %42 = getelementptr inbounds nuw i8, ptr %39, i64 32
  %43 = load ptr, ptr %42, align 8
  %44 = ptrtoint ptr %41 to i64
  %45 = ptrtoint ptr %43 to i64
  %46 = sub i64 %44, %45
  %47 = icmp ult i64 %46, 2
  br i1 %47, label %48, label %50

48:                                               ; preds = %38
  %49 = tail call noundef nonnull align 8 dereferenceable(48) ptr @_ZN4llvm11raw_ostream5writeEPKcm(ptr noundef nonnull align 8 dereferenceable(48) %39, ptr noundef nonnull @.str.1, i64 noundef 2) #22
  br label %_ZN4llvm11raw_ostreamlsEPKc.exit10

50:                                               ; preds = %38
  store i16 8250, ptr %43, align 1
  %51 = load ptr, ptr %42, align 8
  %52 = getelementptr inbounds nuw i8, ptr %51, i64 2
  store ptr %52, ptr %42, align 8
  br label %_ZN4llvm11raw_ostreamlsEPKc.exit10

_ZN4llvm11raw_ostreamlsEPKc.exit10:               ; preds = %48, %50
  %53 = load ptr, ptr %0, align 8
  %54 = load i32, ptr %36, align 4
  %55 = tail call noundef ptr @_ZN5clang29getOpenMPSimpleClauseTypeNameEN4llvm3omp6ClauseEj(i32 noundef 21, i32 noundef %54) #22
  %.not.i.i11 = icmp eq ptr %55, null
  br i1 %.not.i.i11, label %_ZN4llvm11raw_ostreamlsEPKc.exit15, label %_ZN4llvm9StringRefC2EPKc.exit.i12

_ZN4llvm9StringRefC2EPKc.exit.i12:                ; preds = %_ZN4llvm11raw_ostreamlsEPKc.exit10
  %56 = tail call noundef i64 @strlen(ptr noundef nonnull dereferenceable(1) %55) #22
  %57 = getelementptr inbounds nuw i8, ptr %53, i64 24
  %58 = load ptr, ptr %57, align 8
  %59 = getelementptr inbounds nuw i8, ptr %53, i64 32
  %60 = load ptr, ptr %59, align 8
  %61 = ptrtoint ptr %58 to i64
  %62 = ptrtoint ptr %60 to i64
  %63 = sub i64 %61, %62
  %64 = icmp ugt i64 %56, %63
  br i1 %64, label %65, label %67

65:                                               ; preds = %_ZN4llvm9StringRefC2EPKc.exit.i12
  %66 = tail call noundef nonnull align 8 dereferenceable(48) ptr @_ZN4llvm11raw_ostream5writeEPKcm(ptr noundef nonnull align 8 dereferenceable(48) %53, ptr noundef nonnull %55, i64 noundef %56) #22
  br label %_ZN4llvm11raw_ostreamlsEPKc.exit15

67:                                               ; preds = %_ZN4llvm9StringRefC2EPKc.exit.i12
  %.not.i2.i13 = icmp eq i64 %56, 0
  br i1 %.not.i2.i13, label %_ZN4llvm11raw_ostreamlsEPKc.exit15, label %68

68:                                               ; preds = %67
  tail call void @llvm.memcpy.p0.p0.i64(ptr align 1 %60, ptr nonnull align 1 %55, i64 %56, i1 false)
  %69 = load ptr, ptr %59, align 8
  %70 = getelementptr inbounds i8, ptr %69, i64 %56
  store ptr %70, ptr %59, align 8
  br label %_ZN4llvm11raw_ostreamlsEPKc.exit15

_ZN4llvm11raw_ostreamlsEPKc.exit15:               ; preds = %68, %67, %65, %_ZN4llvm11raw_ostreamlsEPKc.exit10, %_ZN4llvm11raw_ostreamlsEPKc.exit6
  %71 = load ptr, ptr %0, align 8
  %72 = getelementptr inbounds nuw i8, ptr %71, i64 24
  %73 = load ptr, ptr %72, align 8
  %74 = getelementptr inbounds nuw i8, ptr %71, i64 32
  %75 = load ptr, ptr %74, align 8
  %76 = icmp eq ptr %73, %75
  br i1 %76, label %77, label %79

77:                                               ; preds = %_ZN4llvm11raw_ostreamlsEPKc.exit15
  %78 = tail call noundef nonnull align 8 dereferenceable(48) ptr @_ZN4llvm11raw_ostream5writeEPKcm(ptr noundef nonnull align 8 dereferenceable(48) %71, ptr noundef nonnull @.str.3, i64 noundef 1) #22
  br label %_ZN4llvm11raw_ostreamlsEPKc.exit19

79:                                               ; preds = %_ZN4llvm11raw_ostreamlsEPKc.exit15
  store i8 41, ptr %75, align 1
  %80 = load ptr, ptr %74, align 8
  %81 = getelementptr inbounds nuw i8, ptr %80, i64 1
  store ptr %81, ptr %74, align 8
  br label %_ZN4llvm11raw_ostreamlsEPKc.exit19

_ZN4llvm11raw_ostreamlsEPKc.exit19:               ; preds = %77, %79
  ret void
}